#include <math.h>
#include <stdio.h>
#include <stdlib.h>
#include <string.h>

int main ()
{
	int n, i = 0, a[10000];
	scanf("%d",&n);
	printf("\n");
	for(i = 0; i < n; i++)
	scanf("%d",&a[i]);
	for(i = n - 1 ; i > 0; i--)
		printf ("%d ",a[i]);
		printf("%d\n",a[0]);



	return 0;
}